; Function Attrs: mustprogress nounwind uwtable
define dso_local noundef zeroext i1 @_ZNK4llvm15TargetInstrInfo24isReassociationCandidateERKNS_12MachineInstrERb(ptr noundef nonnull align 8 dereferenceable(80) %0, ptr noundef nonnull align 8 dereferenceable(70) %1, ptr noundef nonnull align 1 dereferenceable(1) %2) local_unnamed_addr #0 align 2 {
  %4 = load ptr, ptr %0, align 8
  %5 = getelementptr inbounds i8, ptr %4, i64 552
  %6 = load ptr, ptr %5, align 8
  %7 = tail call noundef zeroext i1 %6(ptr noundef nonnull align 8 dereferenceable(80) %0, ptr noundef nonnull align 8 dereferenceable(70) %1, i1 noundef zeroext false) #26
  br i1 %7, label %13, label %8

8:                                                ; preds = %3
  %9 = load ptr, ptr %0, align 8
  %10 = getelementptr inbounds i8, ptr %9, i64 552
  %11 = load ptr, ptr %10, align 8
  %12 = tail call noundef zeroext i1 %11(ptr noundef nonnull align 8 dereferenceable(80) %0, ptr noundef nonnull align 8 dereferenceable(70) %1, i1 noundef zeroext true) #26
  br i1 %12, label %13, label %25

13:                                               ; preds = %8, %3
  %14 = getelementptr inbounds nuw i8, ptr %1, i64 24
  %15 = load ptr, ptr %14, align 8
  %16 = load ptr, ptr %0, align 8
  %17 = getelementptr inbounds i8, ptr %16, i64 568
  %18 = load ptr, ptr %17, align 8
  %19 = tail call noundef zeroext i1 %18(ptr noundef nonnull align 8 dereferenceable(80) %0, ptr noundef nonnull align 8 dereferenceable(70) %1, ptr noundef %15) #26
  br i1 %19, label %20, label %25

20:                                               ; preds = %13
  %21 = load ptr, ptr %0, align 8
  %22 = getelementptr inbounds i8, ptr %21, i64 576
  %23 = load ptr, ptr %22, align 8
  %24 = tail call noundef zeroext i1 %23(ptr noundef nonnull align 8 dereferenceable(80) %0, ptr noundef nonnull align 8 dereferenceable(70) %1, ptr noundef nonnull align 1 dereferenceable(1) %2) #26
  br label %25

25:                                               ; preds = %20, %13, %8
  %26 = phi i1 [ false, %13 ], [ false, %8 ], [ %24, %20 ]
  ret i1 %26
}